(lp0
(cnumpy.core.multiarray
scalar
p1
(cnumpy
dtype
p2
(S'f8'
p3
I0
I1
tp4
Rp5
(I3
S'<'
p6
NNNI-1
I-1
I0
tp7
bS'\x8f\xc0\x90V\xdc6\xa9@'
p8
tp9
Rp10
g1
(g5
S'\x8f\xc0\x90V\xdc6y@'
p11
tp12
Rp13
g1
(g5
S'iW\x14\x8b\n\xbf\x05@'
p14
tp15
Rp16
g1
(g5
S'ZT&%\xf2, ?'
p17
tp18
Rp19
tp20
a(g1
(g5
S'\x8f3p\x998\x8d\x92@'
p21
tp22
Rp23
g1
(g5
S'\x8f3p\x998\x8db@'
p24
tp25
Rp26
g1
(g5
S'8\xef,6V\x8b\xd7?'
p27
tp28
Rp29
g1
(g5
S'\x17\xc4\x95FP\xc0\x86?'
p30
tp31
Rp32
tp33
a.