(cnumpy.core.multiarray
scalar
p0
(cnumpy
dtype
p1
(S'f8'
p2
I0
I1
tp3
Rp4
(I3
S'<'
p5
NNNI-1
I-1
I0
tp6
bS'\x86\xd87\x8e\xf9t\xfc?'
p7
tp8
Rp9
g0
(g4
S'\n\x1d.\x07F\xd6\r@'
p10
tp11
Rp12
g0
(g4
S'\x8d\xed\xb5\xa0\xf7\xc6\xb0>'
p13
tp14
Rp15
tp16
.