(cnumpy.core.multiarray
scalar
p0
(cnumpy
dtype
p1
(S'f8'
p2
I0
I1
tp3
Rp4
(I3
S'<'
p5
NNNI-1
I-1
I0
tp6
bS'\x94sX\xfc\x8e\x14\xe9?'
p7
tp8
Rp9
g0
(g4
S'}Y\x83\xc6\x18\xdd\x01@'
p10
tp11
Rp12
g0
(g4
S'-C\x1c\xeb\xe26\x1a?'
p13
tp14
Rp15
tp16
.