(cnumpy.core.multiarray
scalar
p0
(cnumpy
dtype
p1
(S'f8'
p2
I0
I1
tp3
Rp4
(I3
S'<'
p5
NNNI-1
I-1
I0
tp6
bS'k_\xbc\xb6q\xbf)@'
p7
tp8
Rp9
g0
(g4
S'\xc3\xba\xf6\xba\xadu+@'
p10
tp11
Rp12
g0
(g4
S'\xfc\xa9\xf1\xd2MbP?'
p13
tp14
Rp15
tp16
.